; ModuleID = '24/2054.c'
source_filename = "24/2054.c"
target datalayout = "e-m:e-p270:32:32-p271:32:32-p272:64:64-i64:64-f80:128-n8:16:32:64-S128"
target triple = "x86_64-pc-linux-gnu"

@.str = private unnamed_addr constant [6 x i8] c"%s\0A%s\00", align 1

; Function Attrs: noinline nounwind uwtable
define dso_local i32 @main() #0 {
  %1 = alloca i32, align 4
  %2 = alloca [10000 x i8], align 16
  %3 = alloca [200 x [50 x i8]], align 16
  %4 = alloca [50 x i8], align 16
  %5 = alloca [50 x i8], align 16
  %6 = alloca i32, align 4
  %7 = alloca i32, align 4
  %8 = alloca i32, align 4
  %9 = alloca i32, align 4
  %10 = alloca i32, align 4
  %11 = alloca i32, align 4
  %12 = alloca i32, align 4
  %13 = alloca i32, align 4
  store i32 0, i32* %1, align 4
  store i32 0, i32* %9, align 4
  store i32 0, i32* %10, align 4
  %14 = getelementptr inbounds [10000 x i8], [10000 x i8]* %2, i64 0, i64 0
  %15 = call i32 (i8*, ...) bitcast (i32 (...)* @gets to i32 (i8*, ...)*)(i8* %14)
  %16 = getelementptr inbounds [10000 x i8], [10000 x i8]* %2, i64 0, i64 0
  %17 = call i64 @strlen(i8* %16) #4
  %18 = trunc i64 %17 to i32
  store i32 %18, i32* %8, align 4
  store i32 0, i32* %6, align 4
  br label %19

19:                                               ; preds = %47, %0
  %20 = load i32, i32* %6, align 4
  %21 = load i32, i32* %8, align 4
  %22 = icmp slt i32 %20, %21
  br i1 %22, label %23, label %50

23:                                               ; preds = %19
  %24 = load i32, i32* %6, align 4
  %25 = sext i32 %24 to i64
  %26 = getelementptr inbounds [10000 x i8], [10000 x i8]* %2, i64 0, i64 %25
  %27 = load i8, i8* %26, align 1
  %28 = sext i8 %27 to i32
  %29 = icmp ne i32 %28, 32
  br i1 %29, label %30, label %43

30:                                               ; preds = %23
  %31 = load i32, i32* %6, align 4
  %32 = sext i32 %31 to i64
  %33 = getelementptr inbounds [10000 x i8], [10000 x i8]* %2, i64 0, i64 %32
  %34 = load i8, i8* %33, align 1
  %35 = load i32, i32* %9, align 4
  %36 = sext i32 %35 to i64
  %37 = getelementptr inbounds [200 x [50 x i8]], [200 x [50 x i8]]* %3, i64 0, i64 %36
  %38 = load i32, i32* %10, align 4
  %39 = sext i32 %38 to i64
  %40 = getelementptr inbounds [50 x i8], [50 x i8]* %37, i64 0, i64 %39
  store i8 %34, i8* %40, align 1
  %41 = load i32, i32* %10, align 4
  %42 = add nsw i32 %41, 1
  store i32 %42, i32* %10, align 4
  br label %46

43:                                               ; preds = %23
  %44 = load i32, i32* %9, align 4
  %45 = add nsw i32 %44, 1
  store i32 %45, i32* %9, align 4
  store i32 0, i32* %10, align 4
  br label %46

46:                                               ; preds = %43, %30
  br label %47

47:                                               ; preds = %46
  %48 = load i32, i32* %6, align 4
  %49 = add nsw i32 %48, 1
  store i32 %49, i32* %6, align 4
  br label %19

50:                                               ; preds = %19
  %51 = load i32, i32* %9, align 4
  %52 = add nsw i32 %51, 1
  store i32 %52, i32* %9, align 4
  %53 = getelementptr inbounds [200 x [50 x i8]], [200 x [50 x i8]]* %3, i64 0, i64 0
  %54 = getelementptr inbounds [50 x i8], [50 x i8]* %53, i64 0, i64 0
  %55 = call i64 @strlen(i8* %54) #4
  %56 = trunc i64 %55 to i32
  store i32 %56, i32* %11, align 4
  %57 = load i32, i32* %11, align 4
  store i32 %57, i32* %12, align 4
  %58 = getelementptr inbounds [50 x i8], [50 x i8]* %4, i64 0, i64 0
  %59 = getelementptr inbounds [200 x [50 x i8]], [200 x [50 x i8]]* %3, i64 0, i64 0
  %60 = getelementptr inbounds [50 x i8], [50 x i8]* %59, i64 0, i64 0
  %61 = call i8* @strcpy(i8* %58, i8* %60) #5
  %62 = getelementptr inbounds [50 x i8], [50 x i8]* %5, i64 0, i64 0
  %63 = getelementptr inbounds [200 x [50 x i8]], [200 x [50 x i8]]* %3, i64 0, i64 0
  %64 = getelementptr inbounds [50 x i8], [50 x i8]* %63, i64 0, i64 0
  %65 = call i8* @strcpy(i8* %62, i8* %64) #5
  store i32 1, i32* %7, align 4
  br label %66

66:                                               ; preds = %111, %50
  %67 = load i32, i32* %7, align 4
  %68 = load i32, i32* %9, align 4
  %69 = icmp slt i32 %67, %68
  br i1 %69, label %70, label %114

70:                                               ; preds = %66
  %71 = load i32, i32* %7, align 4
  %72 = sext i32 %71 to i64
  %73 = getelementptr inbounds [200 x [50 x i8]], [200 x [50 x i8]]* %3, i64 0, i64 %72
  %74 = getelementptr inbounds [50 x i8], [50 x i8]* %73, i64 0, i64 0
  %75 = call i64 @strlen(i8* %74) #4
  %76 = trunc i64 %75 to i32
  store i32 %76, i32* %13, align 4
  %77 = load i32, i32* %11, align 4
  %78 = load i32, i32* %13, align 4
  %79 = icmp slt i32 %77, %78
  br i1 %79, label %80, label %93

80:                                               ; preds = %70
  %81 = load i32, i32* %7, align 4
  %82 = sext i32 %81 to i64
  %83 = getelementptr inbounds [200 x [50 x i8]], [200 x [50 x i8]]* %3, i64 0, i64 %82
  %84 = getelementptr inbounds [50 x i8], [50 x i8]* %83, i64 0, i64 0
  %85 = call i64 @strlen(i8* %84) #4
  %86 = trunc i64 %85 to i32
  store i32 %86, i32* %11, align 4
  %87 = getelementptr inbounds [50 x i8], [50 x i8]* %4, i64 0, i64 0
  %88 = load i32, i32* %7, align 4
  %89 = sext i32 %88 to i64
  %90 = getelementptr inbounds [200 x [50 x i8]], [200 x [50 x i8]]* %3, i64 0, i64 %89
  %91 = getelementptr inbounds [50 x i8], [50 x i8]* %90, i64 0, i64 0
  %92 = call i8* @strcpy(i8* %87, i8* %91) #5
  br label %93

93:                                               ; preds = %80, %70
  %94 = load i32, i32* %12, align 4
  %95 = load i32, i32* %13, align 4
  %96 = icmp sgt i32 %94, %95
  br i1 %96, label %97, label %110

97:                                               ; preds = %93
  %98 = load i32, i32* %7, align 4
  %99 = sext i32 %98 to i64
  %100 = getelementptr inbounds [200 x [50 x i8]], [200 x [50 x i8]]* %3, i64 0, i64 %99
  %101 = getelementptr inbounds [50 x i8], [50 x i8]* %100, i64 0, i64 0
  %102 = call i64 @strlen(i8* %101) #4
  %103 = trunc i64 %102 to i32
  store i32 %103, i32* %12, align 4
  %104 = getelementptr inbounds [50 x i8], [50 x i8]* %5, i64 0, i64 0
  %105 = load i32, i32* %7, align 4
  %106 = sext i32 %105 to i64
  %107 = getelementptr inbounds [200 x [50 x i8]], [200 x [50 x i8]]* %3, i64 0, i64 %106
  %108 = getelementptr inbounds [50 x i8], [50 x i8]* %107, i64 0, i64 0
  %109 = call i8* @strcpy(i8* %104, i8* %108) #5
  br label %110

110:                                              ; preds = %97, %93
  br label %111

111:                                              ; preds = %110
  %112 = load i32, i32* %7, align 4
  %113 = add nsw i32 %112, 1
  store i32 %113, i32* %7, align 4
  br label %66

114:                                              ; preds = %66
  %115 = getelementptr inbounds [50 x i8], [50 x i8]* %4, i64 0, i64 0
  %116 = getelementptr inbounds [50 x i8], [50 x i8]* %5, i64 0, i64 0
  %117 = call i32 (i8*, ...) @printf(i8* getelementptr inbounds ([6 x i8], [6 x i8]* @.str, i64 0, i64 0), i8* %115, i8* %116)
  ret i32 0
}

declare dso_local i32 @gets(...) #1

; Function Attrs: nounwind readonly
declare dso_local i64 @strlen(i8*) #2

; Function Attrs: nounwind
declare dso_local i8* @strcpy(i8*, i8*) #3

declare dso_local i32 @printf(i8*, ...) #1


!llvm.module.flags = !{!0}
!llvm.ident = !{!1}

!0 = !{i32 1, !"wchar_size", i32 4}
!1 = !{!"clang version 10.0.0-4ubuntu1 "}
